target datalayout = "e-m:e-p270:32:32-p271:32:32-p272:64:64-i64:64-i128:128-f80:128-n8:16:32:64-S128"
target triple = "x86_64-pc-linux-gnu"

%struct.ident_t = type { i32, i32, i32, i32, ptr }
%"class.ncnn::Scale" = type { %"class.ncnn::Layer", i32, i32, %"class.ncnn::Mat", %"class.ncnn::Mat" }
%"class.ncnn::Layer" = type { ptr, i8, i8, i8, i8, i8, i8, i8, i8, i8, i8, i8, i8, i8, i8, i8, i8, i8, i8, i8, i8, i32, ptr, i32, %"class.std::__cxx11::basic_string", %"class.std::__cxx11::basic_string", %"class.std::vector", %"class.std::vector", %"class.std::vector.3", %"class.std::vector.3" }
%"class.std::__cxx11::basic_string" = type { %"struct.std::__cxx11::basic_string<char>::_Alloc_hider", i64, %union.anon }
%"struct.std::__cxx11::basic_string<char>::_Alloc_hider" = type { ptr }
%union.anon = type { i64, [8 x i8] }
%"class.std::vector" = type { %"struct.std::_Vector_base" }
%"struct.std::_Vector_base" = type { %"struct.std::_Vector_base<int, std::allocator<int>>::_Vector_impl" }
%"struct.std::_Vector_base<int, std::allocator<int>>::_Vector_impl" = type { %"struct.std::_Vector_base<int, std::allocator<int>>::_Vector_impl_data" }
%"struct.std::_Vector_base<int, std::allocator<int>>::_Vector_impl_data" = type { ptr, ptr, ptr }
%"class.std::vector.3" = type { %"struct.std::_Vector_base.4" }
%"struct.std::_Vector_base.4" = type { %"struct.std::_Vector_base<ncnn::Mat, std::allocator<ncnn::Mat>>::_Vector_impl" }
%"struct.std::_Vector_base<ncnn::Mat, std::allocator<ncnn::Mat>>::_Vector_impl" = type { %"struct.std::_Vector_base<ncnn::Mat, std::allocator<ncnn::Mat>>::_Vector_impl_data" }
%"struct.std::_Vector_base<ncnn::Mat, std::allocator<ncnn::Mat>>::_Vector_impl_data" = type { ptr, ptr, ptr }
%"class.ncnn::Mat" = type { ptr, ptr, i64, i32, ptr, i32, i32, i32, i32, i32, i64 }

@1 = private unnamed_addr constant %struct.ident_t { i32 0, i32 514, i32 0, i32 22, ptr @0 }, align 8

; Function Attrs: noinline noreturn nounwind uwtable
define linkonce_odr hidden void @__clang_call_terminate(ptr noundef %0) #6 comdat {
  %2 = call ptr @__cxa_begin_catch(ptr %0) #10
  call void @_ZSt9terminatev() #17
  unreachable
}

; Function Attrs: alwaysinline mustprogress nounwind uwtable
define linkonce_odr hidden noundef nonnull align 4 dereferenceable(4) ptr @_ZNK4ncnn3MatixEm(ptr noundef nonnull align 8 dereferenceable(72) %0, i64 noundef %1) #3 comdat align 2 {
  %3 = alloca ptr, align 8
  %4 = alloca i64, align 8
  store ptr %0, ptr %3, align 8, !tbaa !42
  store i64 %1, ptr %4, align 8, !tbaa !61
  %5 = load ptr, ptr %3, align 8
  %6 = getelementptr inbounds nuw %"class.ncnn::Mat", ptr %5, i32 0, i32 0
  %7 = load ptr, ptr %6, align 8, !tbaa !53
  %8 = load i64, ptr %4, align 8, !tbaa !61
  %9 = getelementptr inbounds nuw float, ptr %7, i64 %8
  ret ptr %9
}

; Function Attrs: alwaysinline norecurse nounwind uwtable
define internal void @_ZNK4ncnn5Scale15forward_inplaceERSt6vectorINS_3MatESaIS2_EERKNS_6OptionE.omp_outlined(ptr noalias noundef %0, ptr noalias noundef %1, ptr noundef nonnull align 4 dereferenceable(4) %2, ptr noundef nonnull align 8 dereferenceable(8) %3, ptr noundef nonnull align 8 dereferenceable(72) %4, ptr noundef %5) #9 personality ptr @__gxx_personality_v0 {
  %7 = alloca ptr, align 8
  %8 = alloca ptr, align 8
  %9 = alloca ptr, align 8
  %10 = alloca ptr, align 8
  %11 = alloca ptr, align 8
  %12 = alloca ptr, align 8
  %13 = alloca ptr, align 8
  %14 = alloca i32, align 4
  %15 = alloca i32, align 4
  %16 = alloca i32, align 4
  %17 = alloca i32, align 4
  %18 = alloca i32, align 4
  %19 = alloca i32, align 4
  %20 = alloca i32, align 4
  %21 = alloca i32, align 4
  %22 = alloca i32, align 4
  store ptr %0, ptr %7, align 8, !tbaa !63
  store ptr %1, ptr %8, align 8, !tbaa !63
  store ptr %2, ptr %9, align 8, !tbaa !63
  store ptr %3, ptr %10, align 8, !tbaa !64
  store ptr %4, ptr %11, align 8, !tbaa !42
  store ptr %5, ptr %12, align 8, !tbaa !4
  %23 = load ptr, ptr %9, align 8, !tbaa !63
  %24 = load ptr, ptr %10, align 8, !tbaa !64
  %25 = load ptr, ptr %11, align 8, !tbaa !42
  %26 = load ptr, ptr %12, align 8, !tbaa !4
  store ptr %25, ptr %13, align 8
  call void @llvm.lifetime.start.p0(i64 4, ptr %14) #10
  call void @llvm.lifetime.start.p0(i64 4, ptr %15) #10
  %27 = load i32, ptr %23, align 4, !tbaa !44
  store i32 %27, ptr %15, align 4, !tbaa !44
  call void @llvm.lifetime.start.p0(i64 4, ptr %16) #10
  %28 = load i32, ptr %15, align 4, !tbaa !44
  %29 = sub nsw i32 %28, 0
  %30 = sdiv i32 %29, 1
  %31 = sub nsw i32 %30, 1
  store i32 %31, ptr %16, align 4, !tbaa !44
  call void @llvm.lifetime.start.p0(i64 4, ptr %17) #10
  store i32 0, ptr %17, align 4, !tbaa !44
  call void @llvm.lifetime.end.p0(i64 4, ptr %17) #10
  %32 = load i32, ptr %15, align 4, !tbaa !44
  %33 = icmp slt i32 0, %32
  br i1 %33, label %34, label %88

34:                                               ; preds = %6
  call void @llvm.lifetime.start.p0(i64 4, ptr %18) #10
  store i32 0, ptr %18, align 4, !tbaa !44
  call void @llvm.lifetime.start.p0(i64 4, ptr %19) #10
  %35 = load i32, ptr %16, align 4, !tbaa !44
  store i32 %35, ptr %19, align 4, !tbaa !44
  call void @llvm.lifetime.start.p0(i64 4, ptr %20) #10
  store i32 1, ptr %20, align 4, !tbaa !44
  call void @llvm.lifetime.start.p0(i64 4, ptr %21) #10
  store i32 0, ptr %21, align 4, !tbaa !44
  call void @llvm.lifetime.start.p0(i64 4, ptr %22) #10
  %36 = load ptr, ptr %7, align 8
  %37 = load i32, ptr %36, align 4, !tbaa !44
  call void @__kmpc_for_static_init_4(ptr @1, i32 %37, i32 34, ptr %21, ptr %18, ptr %19, ptr %20, i32 1, i32 1)
  %38 = load i32, ptr %19, align 4, !tbaa !44
  %39 = load i32, ptr %16, align 4, !tbaa !44
  %40 = icmp sgt i32 %38, %39
  br i1 %40, label %41, label %43

41:                                               ; preds = %34
  %42 = load i32, ptr %16, align 4, !tbaa !44
  br label %45

43:                                               ; preds = %34
  %44 = load i32, ptr %19, align 4, !tbaa !44
  br label %45

45:                                               ; preds = %43, %41
  %46 = phi i32 [ %42, %41 ], [ %44, %43 ]
  store i32 %46, ptr %19, align 4, !tbaa !44
  %47 = load i32, ptr %18, align 4, !tbaa !44
  store i32 %47, ptr %14, align 4, !tbaa !44
  br label %48

48:                                               ; preds = %81, %45
  %49 = load i32, ptr %14, align 4, !tbaa !44
  %50 = load i32, ptr %19, align 4, !tbaa !44
  %51 = icmp sle i32 %49, %50
  br i1 %51, label %53, label %52

52:                                               ; preds = %48
  br label %84

53:                                               ; preds = %48
  %54 = load i32, ptr %14, align 4, !tbaa !44
  %55 = mul nsw i32 %54, 1
  %56 = add nsw i32 0, %55
  store i32 %56, ptr %22, align 4, !tbaa !44
  %57 = load ptr, ptr %24, align 8, !tbaa !46
  %58 = load i32, ptr %22, align 4, !tbaa !44
  %59 = sext i32 %58 to i64
  %60 = getelementptr inbounds float, ptr %57, i64 %59
  %61 = load float, ptr %60, align 4, !tbaa !67
  %62 = load ptr, ptr %13, align 8, !tbaa !42
  %63 = load i32, ptr %22, align 4, !tbaa !44
  %64 = sext i32 %63 to i64
  %65 = invoke noundef nonnull align 4 dereferenceable(4) ptr @_ZNK4ncnn3MatixEm(ptr noundef nonnull align 8 dereferenceable(72) %62, i64 noundef %64)
          to label %66 unwind label %89

66:                                               ; preds = %53
  %67 = load float, ptr %65, align 4, !tbaa !67
  %68 = fmul fast float %61, %67
  %69 = getelementptr inbounds nuw %"class.ncnn::Scale", ptr %26, i32 0, i32 4
  %70 = load i32, ptr %22, align 4, !tbaa !44
  %71 = sext i32 %70 to i64
  %72 = invoke noundef nonnull align 4 dereferenceable(4) ptr @_ZNK4ncnn3MatixEm(ptr noundef nonnull align 8 dereferenceable(72) %69, i64 noundef %71)
          to label %73 unwind label %89

73:                                               ; preds = %66
  %74 = load float, ptr %72, align 4, !tbaa !67
  %75 = fadd fast float %68, %74
  %76 = load ptr, ptr %24, align 8, !tbaa !46
  %77 = load i32, ptr %22, align 4, !tbaa !44
  %78 = sext i32 %77 to i64
  %79 = getelementptr inbounds float, ptr %76, i64 %78
  store float %75, ptr %79, align 4, !tbaa !67
  br label %80

80:                                               ; preds = %73
  br label %81

81:                                               ; preds = %80
  %82 = load i32, ptr %14, align 4, !tbaa !44
  %83 = add nsw i32 %82, 1
  store i32 %83, ptr %14, align 4, !tbaa !44
  br label %48

84:                                               ; preds = %52
  br label %85

85:                                               ; preds = %84
  %86 = load ptr, ptr %7, align 8
  %87 = load i32, ptr %86, align 4, !tbaa !44
  call void @__kmpc_for_static_fini(ptr @1, i32 %87)
  call void @llvm.lifetime.end.p0(i64 4, ptr %22) #10
  call void @llvm.lifetime.end.p0(i64 4, ptr %21) #10
  call void @llvm.lifetime.end.p0(i64 4, ptr %20) #10
  call void @llvm.lifetime.end.p0(i64 4, ptr %19) #10
  call void @llvm.lifetime.end.p0(i64 4, ptr %18) #10
  br label %88

88:                                               ; preds = %85, %6
  call void @llvm.lifetime.end.p0(i64 4, ptr %16) #10
  call void @llvm.lifetime.end.p0(i64 4, ptr %15) #10
  call void @llvm.lifetime.end.p0(i64 4, ptr %14) #10
  ret void

89:                                               ; preds = %66, %53
  %90 = landingpad { ptr, i32 }
          catch ptr null
  %91 = extractvalue { ptr, i32 } %90, 0
  call void @__clang_call_terminate(ptr %91) #17
  unreachable
}